target datalayout = "e-m:e-p270:32:32-p271:32:32-p272:64:64-i64:64-i128:128-f80:128-n8:16:32:64-S128"
target triple = "x86_64-pc-linux-gnu"

%struct.PortalData = type { ptr, ptr, ptr, ptr, ptr, i32, i32, i32, ptr, i32, %struct.QueryCompletion, ptr, ptr, ptr, ptr, i32, i32, i32, i8, i8, ptr, ptr, ptr, ptr, ptr, ptr, ptr, i8, i8, i64, i64, i8 }
%struct.QueryCompletion = type { i32, i64 }

@PortalHashTable = internal global ptr null, align 8
@.str.3 = private unnamed_addr constant [12 x i8] c"portalmem.c\00", align 1
@.str.14 = private unnamed_addr constant [31 x i8] c"cannot drop pinned portal \22%s\22\00", align 1
@__func__.PortalDrop = private unnamed_addr constant [11 x i8] c"PortalDrop\00", align 1
@.str.15 = private unnamed_addr constant [31 x i8] c"cannot drop active portal \22%s\22\00", align 1
@.str.16 = private unnamed_addr constant [49 x i8] c"trying to delete portal name that does not exist\00", align 1
@CurrentMemoryContext = external global ptr, align 8

; Function Attrs: inlinehint nounwind uwtable
define internal ptr @MemoryContextSwitchTo(ptr noundef %0) #5 {
  %2 = alloca ptr, align 8
  %3 = alloca ptr, align 8
  store ptr %0, ptr %2, align 8
  call void @llvm.lifetime.start.p0(i64 8, ptr %3) #6
  %4 = load ptr, ptr @CurrentMemoryContext, align 8
  store ptr %4, ptr %3, align 8
  %5 = load ptr, ptr %2, align 8
  store ptr %5, ptr @CurrentMemoryContext, align 8
  %6 = load ptr, ptr %3, align 8
  call void @llvm.lifetime.end.p0(i64 8, ptr %3) #6
  ret ptr %6
}

; Function Attrs: nounwind uwtable
define internal void @PortalReleaseCachedPlan(ptr noundef %0) #0 {
  %2 = alloca ptr, align 8
  store ptr %0, ptr %2, align 8
  %3 = load ptr, ptr %2, align 8
  %4 = getelementptr inbounds nuw %struct.PortalData, ptr %3, i32 0, i32 12
  %5 = load ptr, ptr %4, align 8
  %6 = icmp ne ptr %5, null
  br i1 %6, label %7, label %15

7:                                                ; preds = %1
  %8 = load ptr, ptr %2, align 8
  %9 = getelementptr inbounds nuw %struct.PortalData, ptr %8, i32 0, i32 12
  %10 = load ptr, ptr %9, align 8
  call void @ReleaseCachedPlan(ptr noundef %10, ptr noundef null)
  %11 = load ptr, ptr %2, align 8
  %12 = getelementptr inbounds nuw %struct.PortalData, ptr %11, i32 0, i32 12
  store ptr null, ptr %12, align 8
  %13 = load ptr, ptr %2, align 8
  %14 = getelementptr inbounds nuw %struct.PortalData, ptr %13, i32 0, i32 11
  store ptr null, ptr %14, align 8
  br label %15

15:                                               ; preds = %7, %1
  ret void
}

; Function Attrs: nounwind uwtable
define dso_local void @PortalDrop(ptr noundef %0, i1 noundef zeroext %1) #0 {
  %3 = alloca ptr, align 8
  %4 = alloca i8, align 1
  %5 = alloca ptr, align 8
  %6 = alloca i8, align 1
  %7 = alloca ptr, align 8
  store ptr %0, ptr %3, align 8
  %8 = zext i1 %1 to i8
  store i8 %8, ptr %4, align 1
  %9 = load ptr, ptr %3, align 8
  %10 = getelementptr inbounds nuw %struct.PortalData, ptr %9, i32 0, i32 18
  %11 = load i8, ptr %10, align 4, !range !4, !noundef !5
  %12 = trunc i8 %11 to i1
  br i1 %12, label %13, label %27

13:                                               ; preds = %2
  br label %14

14:                                               ; preds = %13
  br i1 true, label %15, label %17

15:                                               ; preds = %14
  %16 = call zeroext i1 @errstart_cold(i32 noundef 21, ptr noundef null) #7
  br i1 %16, label %19, label %25

17:                                               ; preds = %14
  %18 = call zeroext i1 @errstart(i32 noundef 21, ptr noundef null)
  br i1 %18, label %19, label %25

19:                                               ; preds = %17, %15
  %20 = call i32 @errcode(i32 noundef 258)
  %21 = load ptr, ptr %3, align 8
  %22 = getelementptr inbounds nuw %struct.PortalData, ptr %21, i32 0, i32 0
  %23 = load ptr, ptr %22, align 8
  %24 = call i32 (ptr, ...) @errmsg(ptr noundef @.str.14, ptr noundef %23)
  call void @errfinish(ptr noundef @.str.3, i32 noundef 479, ptr noundef @__func__.PortalDrop)
  br label %25

25:                                               ; preds = %19, %17, %15
  unreachable

26:                                               ; No predecessors!
  br label %27

27:                                               ; preds = %26, %2
  %28 = load ptr, ptr %3, align 8
  %29 = getelementptr inbounds nuw %struct.PortalData, ptr %28, i32 0, i32 17
  %30 = load i32, ptr %29, align 8
  %31 = icmp eq i32 %30, 3
  br i1 %31, label %32, label %46

32:                                               ; preds = %27
  br label %33

33:                                               ; preds = %32
  br i1 true, label %34, label %36

34:                                               ; preds = %33
  %35 = call zeroext i1 @errstart_cold(i32 noundef 21, ptr noundef null) #7
  br i1 %35, label %38, label %44

36:                                               ; preds = %33
  %37 = call zeroext i1 @errstart(i32 noundef 21, ptr noundef null)
  br i1 %37, label %38, label %44

38:                                               ; preds = %36, %34
  %39 = call i32 @errcode(i32 noundef 258)
  %40 = load ptr, ptr %3, align 8
  %41 = getelementptr inbounds nuw %struct.PortalData, ptr %40, i32 0, i32 0
  %42 = load ptr, ptr %41, align 8
  %43 = call i32 (ptr, ...) @errmsg(ptr noundef @.str.15, ptr noundef %42)
  call void @errfinish(ptr noundef @.str.3, i32 noundef 487, ptr noundef @__func__.PortalDrop)
  br label %44

44:                                               ; preds = %38, %36, %34
  unreachable

45:                                               ; No predecessors!
  br label %46

46:                                               ; preds = %45, %27
  %47 = load ptr, ptr %3, align 8
  %48 = getelementptr inbounds nuw %struct.PortalData, ptr %47, i32 0, i32 4
  %49 = load ptr, ptr %48, align 8
  %50 = icmp ne ptr %49, null
  br i1 %50, label %51, label %58

51:                                               ; preds = %46
  %52 = load ptr, ptr %3, align 8
  %53 = getelementptr inbounds nuw %struct.PortalData, ptr %52, i32 0, i32 4
  %54 = load ptr, ptr %53, align 8
  %55 = load ptr, ptr %3, align 8
  call void %54(ptr noundef %55)
  %56 = load ptr, ptr %3, align 8
  %57 = getelementptr inbounds nuw %struct.PortalData, ptr %56, i32 0, i32 4
  store ptr null, ptr %57, align 8
  br label %58

58:                                               ; preds = %51, %46
  br label %59

59:                                               ; preds = %58
  call void @llvm.lifetime.start.p0(i64 8, ptr %5) #6
  %60 = load ptr, ptr @PortalHashTable, align 8
  %61 = load ptr, ptr %3, align 8
  %62 = getelementptr inbounds nuw %struct.PortalData, ptr %61, i32 0, i32 0
  %63 = load ptr, ptr %62, align 8
  %64 = call ptr @hash_search(ptr noundef %60, ptr noundef %63, i32 noundef 2, ptr noundef null)
  store ptr %64, ptr %5, align 8
  %65 = load ptr, ptr %5, align 8
  %66 = icmp eq ptr %65, null
  br i1 %66, label %67, label %78

67:                                               ; preds = %59
  br label %68

68:                                               ; preds = %67
  br i1 false, label %69, label %71

69:                                               ; preds = %68
  %70 = call zeroext i1 @errstart_cold(i32 noundef 19, ptr noundef null) #7
  br i1 %70, label %73, label %75

71:                                               ; preds = %68
  %72 = call zeroext i1 @errstart(i32 noundef 19, ptr noundef null)
  br i1 %72, label %73, label %75

73:                                               ; preds = %71, %69
  %74 = call i32 (ptr, ...) @errmsg_internal(ptr noundef @.str.16)
  call void @errfinish(ptr noundef @.str.3, i32 noundef 515, ptr noundef @__func__.PortalDrop)
  br label %75

75:                                               ; preds = %73, %71, %69
  br label %76

76:                                               ; preds = %75
  br label %77

77:                                               ; preds = %76
  br label %78

78:                                               ; preds = %77, %59
  call void @llvm.lifetime.end.p0(i64 8, ptr %5) #6
  br label %79

79:                                               ; preds = %78
  %80 = load ptr, ptr %3, align 8
  call void @PortalReleaseCachedPlan(ptr noundef %80)
  %81 = load ptr, ptr %3, align 8
  %82 = getelementptr inbounds nuw %struct.PortalData, ptr %81, i32 0, i32 26
  %83 = load ptr, ptr %82, align 8
  %84 = icmp ne ptr %83, null
  br i1 %84, label %85, label %100

85:                                               ; preds = %79
  %86 = load ptr, ptr %3, align 8
  %87 = getelementptr inbounds nuw %struct.PortalData, ptr %86, i32 0, i32 3
  %88 = load ptr, ptr %87, align 8
  %89 = icmp ne ptr %88, null
  br i1 %89, label %90, label %97

90:                                               ; preds = %85
  %91 = load ptr, ptr %3, align 8
  %92 = getelementptr inbounds nuw %struct.PortalData, ptr %91, i32 0, i32 26
  %93 = load ptr, ptr %92, align 8
  %94 = load ptr, ptr %3, align 8
  %95 = getelementptr inbounds nuw %struct.PortalData, ptr %94, i32 0, i32 3
  %96 = load ptr, ptr %95, align 8
  call void @UnregisterSnapshotFromOwner(ptr noundef %93, ptr noundef %96)
  br label %97

97:                                               ; preds = %90, %85
  %98 = load ptr, ptr %3, align 8
  %99 = getelementptr inbounds nuw %struct.PortalData, ptr %98, i32 0, i32 26
  store ptr null, ptr %99, align 8
  br label %100

100:                                              ; preds = %97, %79
  %101 = load ptr, ptr %3, align 8
  %102 = getelementptr inbounds nuw %struct.PortalData, ptr %101, i32 0, i32 3
  %103 = load ptr, ptr %102, align 8
  %104 = icmp ne ptr %103, null
  br i1 %104, label %105, label %137

105:                                              ; preds = %100
  %106 = load i8, ptr %4, align 1, !range !4, !noundef !5
  %107 = trunc i8 %106 to i1
  br i1 %107, label %108, label %113

108:                                              ; preds = %105
  %109 = load ptr, ptr %3, align 8
  %110 = getelementptr inbounds nuw %struct.PortalData, ptr %109, i32 0, i32 17
  %111 = load i32, ptr %110, align 8
  %112 = icmp eq i32 %111, 5
  br i1 %112, label %113, label %137

113:                                              ; preds = %108, %105
  call void @llvm.lifetime.start.p0(i64 1, ptr %6) #6
  %114 = load ptr, ptr %3, align 8
  %115 = getelementptr inbounds nuw %struct.PortalData, ptr %114, i32 0, i32 17
  %116 = load i32, ptr %115, align 8
  %117 = icmp ne i32 %116, 5
  %118 = zext i1 %117 to i8
  store i8 %118, ptr %6, align 1
  %119 = load ptr, ptr %3, align 8
  %120 = getelementptr inbounds nuw %struct.PortalData, ptr %119, i32 0, i32 3
  %121 = load ptr, ptr %120, align 8
  %122 = load i8, ptr %6, align 1, !range !4, !noundef !5
  %123 = trunc i8 %122 to i1
  call void @ResourceOwnerRelease(ptr noundef %121, i32 noundef 1, i1 noundef zeroext %123, i1 noundef zeroext false)
  %124 = load ptr, ptr %3, align 8
  %125 = getelementptr inbounds nuw %struct.PortalData, ptr %124, i32 0, i32 3
  %126 = load ptr, ptr %125, align 8
  %127 = load i8, ptr %6, align 1, !range !4, !noundef !5
  %128 = trunc i8 %127 to i1
  call void @ResourceOwnerRelease(ptr noundef %126, i32 noundef 2, i1 noundef zeroext %128, i1 noundef zeroext false)
  %129 = load ptr, ptr %3, align 8
  %130 = getelementptr inbounds nuw %struct.PortalData, ptr %129, i32 0, i32 3
  %131 = load ptr, ptr %130, align 8
  %132 = load i8, ptr %6, align 1, !range !4, !noundef !5
  %133 = trunc i8 %132 to i1
  call void @ResourceOwnerRelease(ptr noundef %131, i32 noundef 3, i1 noundef zeroext %133, i1 noundef zeroext false)
  %134 = load ptr, ptr %3, align 8
  %135 = getelementptr inbounds nuw %struct.PortalData, ptr %134, i32 0, i32 3
  %136 = load ptr, ptr %135, align 8
  call void @ResourceOwnerDelete(ptr noundef %136)
  call void @llvm.lifetime.end.p0(i64 1, ptr %6) #6
  br label %137

137:                                              ; preds = %113, %108, %100
  %138 = load ptr, ptr %3, align 8
  %139 = getelementptr inbounds nuw %struct.PortalData, ptr %138, i32 0, i32 3
  store ptr null, ptr %139, align 8
  %140 = load ptr, ptr %3, align 8
  %141 = getelementptr inbounds nuw %struct.PortalData, ptr %140, i32 0, i32 24
  %142 = load ptr, ptr %141, align 8
  %143 = icmp ne ptr %142, null
  br i1 %143, label %144, label %156

144:                                              ; preds = %137
  call void @llvm.lifetime.start.p0(i64 8, ptr %7) #6
  %145 = load ptr, ptr %3, align 8
  %146 = getelementptr inbounds nuw %struct.PortalData, ptr %145, i32 0, i32 25
  %147 = load ptr, ptr %146, align 8
  %148 = call ptr @MemoryContextSwitchTo(ptr noundef %147)
  store ptr %148, ptr %7, align 8
  %149 = load ptr, ptr %3, align 8
  %150 = getelementptr inbounds nuw %struct.PortalData, ptr %149, i32 0, i32 24
  %151 = load ptr, ptr %150, align 8
  call void @tuplestore_end(ptr noundef %151)
  %152 = load ptr, ptr %7, align 8
  %153 = call ptr @MemoryContextSwitchTo(ptr noundef %152)
  %154 = load ptr, ptr %3, align 8
  %155 = getelementptr inbounds nuw %struct.PortalData, ptr %154, i32 0, i32 24
  store ptr null, ptr %155, align 8
  call void @llvm.lifetime.end.p0(i64 8, ptr %7) #6
  br label %156

156:                                              ; preds = %144, %137
  %157 = load ptr, ptr %3, align 8
  %158 = getelementptr inbounds nuw %struct.PortalData, ptr %157, i32 0, i32 25
  %159 = load ptr, ptr %158, align 8
  %160 = icmp ne ptr %159, null
  br i1 %160, label %161, label %165

161:                                              ; preds = %156
  %162 = load ptr, ptr %3, align 8
  %163 = getelementptr inbounds nuw %struct.PortalData, ptr %162, i32 0, i32 25
  %164 = load ptr, ptr %163, align 8
  call void @MemoryContextDelete(ptr noundef %164)
  br label %165

165:                                              ; preds = %161, %156
  %166 = load ptr, ptr %3, align 8
  %167 = getelementptr inbounds nuw %struct.PortalData, ptr %166, i32 0, i32 2
  %168 = load ptr, ptr %167, align 8
  call void @MemoryContextDelete(ptr noundef %168)
  %169 = load ptr, ptr %3, align 8
  call void @pfree(ptr noundef %169)
  ret void
}