; Function Attrs: nounwind uwtable
define dso_local void @PortalDrop(ptr noundef %0, i1 noundef zeroext %1) local_unnamed_addr #0 {
  %3 = getelementptr inbounds nuw i8, ptr %0, i64 132
  %4 = load i8, ptr %3, align 4, !range !4, !noundef !5
  %5 = trunc nuw i8 %4 to i1
  br i1 %5, label %6, label %11

6:                                                ; preds = %2
  %7 = tail call zeroext i1 @errstart_cold(i32 noundef 21, ptr noundef null) #9
  tail call void @llvm.assume(i1 %7)
  %8 = tail call i32 @errcode(i32 noundef 258) #8
  %9 = load ptr, ptr %0, align 8
  %10 = tail call i32 (ptr, ...) @errmsg(ptr noundef nonnull @.str.14, ptr noundef %9) #8
  tail call void @errfinish(ptr noundef nonnull @.str.3, i32 noundef 479, ptr noundef nonnull @__func__.PortalDrop) #8
  unreachable

11:                                               ; preds = %2
  %12 = getelementptr inbounds nuw i8, ptr %0, i64 128
  %13 = load i32, ptr %12, align 8
  %14 = icmp eq i32 %13, 3
  br i1 %14, label %15, label %20

15:                                               ; preds = %11
  %16 = tail call zeroext i1 @errstart_cold(i32 noundef 21, ptr noundef null) #9
  tail call void @llvm.assume(i1 %16)
  %17 = tail call i32 @errcode(i32 noundef 258) #8
  %18 = load ptr, ptr %0, align 8
  %19 = tail call i32 (ptr, ...) @errmsg(ptr noundef nonnull @.str.15, ptr noundef %18) #8
  tail call void @errfinish(ptr noundef nonnull @.str.3, i32 noundef 487, ptr noundef nonnull @__func__.PortalDrop) #8
  unreachable

20:                                               ; preds = %11
  %21 = getelementptr inbounds nuw i8, ptr %0, i64 32
  %22 = load ptr, ptr %21, align 8
  %.not = icmp eq ptr %22, null
  br i1 %.not, label %24, label %23

23:                                               ; preds = %20
  tail call void %22(ptr noundef nonnull %0) #8
  store ptr null, ptr %21, align 8
  br label %24

24:                                               ; preds = %20, %23
  %25 = load ptr, ptr @PortalHashTable, align 8
  %26 = load ptr, ptr %0, align 8
  %27 = tail call ptr @hash_search(ptr noundef %25, ptr noundef %26, i32 noundef 2, ptr noundef null) #8
  %28 = icmp eq ptr %27, null
  br i1 %28, label %29, label %33

29:                                               ; preds = %24
  %30 = tail call zeroext i1 @errstart(i32 noundef 19, ptr noundef null) #8
  br i1 %30, label %31, label %33

31:                                               ; preds = %29
  %32 = tail call i32 (ptr, ...) @errmsg_internal(ptr noundef nonnull @.str.16) #8
  tail call void @errfinish(ptr noundef nonnull @.str.3, i32 noundef 515, ptr noundef nonnull @__func__.PortalDrop) #8
  br label %33

33:                                               ; preds = %29, %31, %24
  %34 = getelementptr inbounds nuw i8, ptr %0, i64 96
  %35 = load ptr, ptr %34, align 8
  %.not.i = icmp eq ptr %35, null
  br i1 %.not.i, label %PortalReleaseCachedPlan.exit, label %36

36:                                               ; preds = %33
  tail call void @ReleaseCachedPlan(ptr noundef nonnull %35, ptr noundef null) #8
  %37 = getelementptr inbounds nuw i8, ptr %0, i64 88
  tail call void @llvm.memset.p0.i64(ptr noundef nonnull align 8 dereferenceable(16) %37, i8 0, i64 16, i1 false)
  br label %PortalReleaseCachedPlan.exit

PortalReleaseCachedPlan.exit:                     ; preds = %33, %36
  %38 = getelementptr inbounds nuw i8, ptr %0, i64 184
  %39 = load ptr, ptr %38, align 8
  %.not39 = icmp eq ptr %39, null
  br i1 %.not39, label %45, label %40

40:                                               ; preds = %PortalReleaseCachedPlan.exit
  %41 = getelementptr inbounds nuw i8, ptr %0, i64 24
  %42 = load ptr, ptr %41, align 8
  %.not40 = icmp eq ptr %42, null
  br i1 %.not40, label %44, label %43

43:                                               ; preds = %40
  tail call void @UnregisterSnapshotFromOwner(ptr noundef nonnull %39, ptr noundef nonnull %42) #8
  br label %44

44:                                               ; preds = %43, %40
  store ptr null, ptr %38, align 8
  br label %45

45:                                               ; preds = %44, %PortalReleaseCachedPlan.exit
  %46 = getelementptr inbounds nuw i8, ptr %0, i64 24
  %47 = load ptr, ptr %46, align 8
  %.not41 = icmp eq ptr %47, null
  br i1 %.not41, label %55, label %48

48:                                               ; preds = %45
  %.pre = load i32, ptr %12, align 8
  %49 = icmp ne i32 %.pre, 5
  %or.cond.not = select i1 %1, i1 %49, i1 false
  br i1 %or.cond.not, label %55, label %50

50:                                               ; preds = %48
  %51 = icmp ne i32 %.pre, 5
  tail call void @ResourceOwnerRelease(ptr noundef nonnull %47, i32 noundef 1, i1 noundef zeroext %51, i1 noundef zeroext false) #8
  %52 = load ptr, ptr %46, align 8
  tail call void @ResourceOwnerRelease(ptr noundef %52, i32 noundef 2, i1 noundef zeroext %51, i1 noundef zeroext false) #8
  %53 = load ptr, ptr %46, align 8
  tail call void @ResourceOwnerRelease(ptr noundef %53, i32 noundef 3, i1 noundef zeroext %51, i1 noundef zeroext false) #8
  %54 = load ptr, ptr %46, align 8
  tail call void @ResourceOwnerDelete(ptr noundef %54) #8
  br label %55

55:                                               ; preds = %48, %50, %45
  store ptr null, ptr %46, align 8
  %56 = getelementptr inbounds nuw i8, ptr %0, i64 168
  %57 = load ptr, ptr %56, align 8
  %.not42 = icmp eq ptr %57, null
  br i1 %.not42, label %62, label %58

58:                                               ; preds = %55
  %59 = getelementptr inbounds nuw i8, ptr %0, i64 176
  %60 = load ptr, ptr %59, align 8
  %61 = load ptr, ptr @CurrentMemoryContext, align 8
  store ptr %60, ptr @CurrentMemoryContext, align 8
  tail call void @tuplestore_end(ptr noundef nonnull %57) #8
  store ptr %61, ptr @CurrentMemoryContext, align 8
  store ptr null, ptr %56, align 8
  br label %62

62:                                               ; preds = %58, %55
  %63 = getelementptr inbounds nuw i8, ptr %0, i64 176
  %64 = load ptr, ptr %63, align 8
  %.not43 = icmp eq ptr %64, null
  br i1 %.not43, label %66, label %65

65:                                               ; preds = %62
  tail call void @MemoryContextDelete(ptr noundef nonnull %64) #8
  br label %66

66:                                               ; preds = %65, %62
  %67 = getelementptr inbounds nuw i8, ptr %0, i64 16
  %68 = load ptr, ptr %67, align 8
  tail call void @MemoryContextDelete(ptr noundef %68) #8
  tail call void @pfree(ptr noundef nonnull %0) #8
  ret void
}